; Function Attrs: nounwind uwtable
define hidden i32 @SDL_GetThreadState_REAL(ptr noundef %0) local_unnamed_addr #0 {
  %2 = tail call zeroext i1 @SDL_ObjectValid(ptr noundef %0, i32 noundef 10) #6
  br i1 %2, label %3, label %6

3:                                                ; preds = %1
  %4 = getelementptr inbounds nuw i8, ptr %0, i64 20
  %5 = tail call i32 @SDL_GetAtomicInt_REAL(ptr noundef nonnull %4) #6
  br label %6

6:                                                ; preds = %1, %3
  %.0 = phi i32 [ %5, %3 ], [ 0, %1 ]
  ret i32 %.0
}